
main.elf:     file format elf32-littleriscv


Disassembly of section .text:

00000000 <_isr_handler>:
       0:	0080006f          	j	8 <_isr_routine>
       4:	1400006f          	j	144 <_start>

00000008 <_isr_routine>:
       8:	f8010113          	addi	sp,sp,-128
       c:	00112023          	sw	ra,0(sp)
      10:	00312423          	sw	gp,8(sp)
      14:	00412623          	sw	tp,12(sp)
      18:	00512823          	sw	t0,16(sp)
      1c:	00612a23          	sw	t1,20(sp)
      20:	00712c23          	sw	t2,24(sp)
      24:	00812e23          	sw	s0,28(sp)
      28:	02912023          	sw	s1,32(sp)
      2c:	02a12223          	sw	a0,36(sp)
      30:	02b12423          	sw	a1,40(sp)
      34:	02c12623          	sw	a2,44(sp)
      38:	02d12823          	sw	a3,48(sp)
      3c:	02e12a23          	sw	a4,52(sp)
      40:	02f12c23          	sw	a5,56(sp)
      44:	03012e23          	sw	a6,60(sp)
      48:	05112023          	sw	a7,64(sp)
      4c:	05212223          	sw	s2,68(sp)
      50:	05312423          	sw	s3,72(sp)
      54:	05412623          	sw	s4,76(sp)
      58:	05512823          	sw	s5,80(sp)
      5c:	05612a23          	sw	s6,84(sp)
      60:	05712c23          	sw	s7,88(sp)
      64:	05812e23          	sw	s8,92(sp)
      68:	07912023          	sw	s9,96(sp)
      6c:	07a12223          	sw	s10,100(sp)
      70:	07b12423          	sw	s11,104(sp)
      74:	07c12623          	sw	t3,108(sp)
      78:	07d12823          	sw	t4,112(sp)
      7c:	07e12a23          	sw	t5,116(sp)
      80:	07f12c23          	sw	t6,120(sp)
      84:	342022f3          	csrr	t0,mcause
      88:	80000337          	lui	t1,0x80000
      8c:	02536463          	bltu	t1,t0,b4 <external_irq>
      90:	00028833          	add	a6,t0,zero
      94:	00b00313          	li	t1,11
      98:	00628463          	beq	t0,t1,a0 <skip_init_args>
      9c:	34102573          	csrr	a0,mepc

000000a0 <skip_init_args>:
      a0:	244000ef          	jal	2e4 <handle_exception>
      a4:	341022f3          	csrr	t0,mepc
      a8:	00428293          	addi	t0,t0,4
      ac:	34129073          	csrw	mepc,t0
      b0:	0140006f          	j	c4 <restore>

000000b4 <external_irq>:
      b4:	800002b7          	lui	t0,0x80000
      b8:	fff28293          	addi	t0,t0,-1 # 7fffffff <_stack_end+0x7fefe7ff>
      bc:	34202373          	csrr	t1,mcause
      c0:	0062f533          	and	a0,t0,t1

000000c4 <restore>:
      c4:	00012083          	lw	ra,0(sp)
      c8:	00812183          	lw	gp,8(sp)
      cc:	00c12203          	lw	tp,12(sp)
      d0:	01012283          	lw	t0,16(sp)
      d4:	01412303          	lw	t1,20(sp)
      d8:	01812383          	lw	t2,24(sp)
      dc:	01c12403          	lw	s0,28(sp)
      e0:	02012483          	lw	s1,32(sp)
      e4:	02412503          	lw	a0,36(sp)
      e8:	02812583          	lw	a1,40(sp)
      ec:	02c12603          	lw	a2,44(sp)
      f0:	03012683          	lw	a3,48(sp)
      f4:	03412703          	lw	a4,52(sp)
      f8:	03812783          	lw	a5,56(sp)
      fc:	03c12803          	lw	a6,60(sp)
     100:	04012883          	lw	a7,64(sp)
     104:	04412903          	lw	s2,68(sp)
     108:	04812983          	lw	s3,72(sp)
     10c:	04c12a03          	lw	s4,76(sp)
     110:	05012a83          	lw	s5,80(sp)
     114:	05412b03          	lw	s6,84(sp)
     118:	05812b83          	lw	s7,88(sp)
     11c:	05c12c03          	lw	s8,92(sp)
     120:	06012c83          	lw	s9,96(sp)
     124:	06412d03          	lw	s10,100(sp)
     128:	06812d83          	lw	s11,104(sp)
     12c:	06c12e03          	lw	t3,108(sp)
     130:	07012e83          	lw	t4,112(sp)
     134:	07412f03          	lw	t5,116(sp)
     138:	07812f83          	lw	t6,120(sp)
     13c:	08010113          	addi	sp,sp,128
     140:	30200073          	mret

00000144 <_start>:
     144:	30401073          	csrw	mie,zero
     148:	00101117          	auipc	sp,0x101
     14c:	6b810113          	addi	sp,sp,1720 # 101800 <_stack_end>
     150:	00002197          	auipc	gp,0x2
     154:	b5418193          	addi	gp,gp,-1196 # 1ca4 <__global_pointer>
     158:	00001517          	auipc	a0,0x1
     15c:	2b850513          	addi	a0,a0,696 # 1410 <welcome_msg>
     160:	00400893          	li	a7,4
     164:	00000073          	ecall
     168:	745000ef          	jal	10ac <main>

0000016c <loop>:
     16c:	0000006f          	j	16c <loop>

00000170 <printc>:
     170:	04000737          	lui	a4,0x4000
     174:	04470713          	addi	a4,a4,68 # 4000044 <_stack_end+0x3efe844>
     178:	000106b7          	lui	a3,0x10
     17c:	00072783          	lw	a5,0(a4)
     180:	fed7eee3          	bltu	a5,a3,17c <printc+0xc>
     184:	040007b7          	lui	a5,0x4000
     188:	04a7a023          	sw	a0,64(a5) # 4000040 <_stack_end+0x3efe840>
     18c:	00008067          	ret

00000190 <print>:
     190:	00054603          	lbu	a2,0(a0)
     194:	02060863          	beqz	a2,1c4 <print+0x34>
     198:	04000737          	lui	a4,0x4000
     19c:	040005b7          	lui	a1,0x4000
     1a0:	04470713          	addi	a4,a4,68 # 4000044 <_stack_end+0x3efe844>
     1a4:	04058593          	addi	a1,a1,64 # 4000040 <_stack_end+0x3efe840>
     1a8:	000106b7          	lui	a3,0x10
     1ac:	00072783          	lw	a5,0(a4)
     1b0:	fed7eee3          	bltu	a5,a3,1ac <print+0x1c>
     1b4:	00c5a023          	sw	a2,0(a1)
     1b8:	00154603          	lbu	a2,1(a0)
     1bc:	00150513          	addi	a0,a0,1
     1c0:	fe0616e3          	bnez	a2,1ac <print+0x1c>
     1c4:	00008067          	ret

000001c8 <print_dec>:
     1c8:	3b9ad737          	lui	a4,0x3b9ad
     1cc:	040006b7          	lui	a3,0x4000
     1d0:	04000337          	lui	t1,0x4000
     1d4:	ccccd8b7          	lui	a7,0xccccd
     1d8:	a0070713          	addi	a4,a4,-1536 # 3b9aca00 <_stack_end+0x3b8ab200>
     1dc:	04468693          	addi	a3,a3,68 # 4000044 <_stack_end+0x3efe844>
     1e0:	04030313          	addi	t1,t1,64 # 4000040 <_stack_end+0x3efe840>
     1e4:	ccd88893          	addi	a7,a7,-819 # cccccccd <_stack_end+0xccbcb4cd>
     1e8:	00a00593          	li	a1,10
     1ec:	00000793          	li	a5,0
     1f0:	00010637          	lui	a2,0x10
     1f4:	04e57663          	bgeu	a0,a4,240 <print_dec+0x78>
     1f8:	00078813          	mv	a6,a5
     1fc:	00000793          	li	a5,0
     200:	04081063          	bnez	a6,240 <print_dec+0x78>
     204:	03173833          	mulhu	a6,a4,a7
     208:	fff58593          	addi	a1,a1,-1
     20c:	02e57533          	remu	a0,a0,a4
     210:	00385713          	srli	a4,a6,0x3
     214:	fe0590e3          	bnez	a1,1f4 <print_dec+0x2c>
     218:	02079263          	bnez	a5,23c <print_dec+0x74>
     21c:	04000737          	lui	a4,0x4000
     220:	04470713          	addi	a4,a4,68 # 4000044 <_stack_end+0x3efe844>
     224:	000106b7          	lui	a3,0x10
     228:	00072783          	lw	a5,0(a4)
     22c:	fed7eee3          	bltu	a5,a3,228 <print_dec+0x60>
     230:	040007b7          	lui	a5,0x4000
     234:	03000713          	li	a4,48
     238:	04e7a023          	sw	a4,64(a5) # 4000040 <_stack_end+0x3efe840>
     23c:	00008067          	ret
     240:	02e55833          	divu	a6,a0,a4
     244:	03080813          	addi	a6,a6,48
     248:	0ff87813          	zext.b	a6,a6
     24c:	0006a783          	lw	a5,0(a3) # 10000 <__global_pointer+0xe35c>
     250:	fec7eee3          	bltu	a5,a2,24c <print_dec+0x84>
     254:	01032023          	sw	a6,0(t1)
     258:	00100793          	li	a5,1
     25c:	fa9ff06f          	j	204 <print_dec+0x3c>

00000260 <print_hex32>:
     260:	04000737          	lui	a4,0x4000
     264:	04470713          	addi	a4,a4,68 # 4000044 <_stack_end+0x3efe844>
     268:	000106b7          	lui	a3,0x10
     26c:	00072783          	lw	a5,0(a4)
     270:	fed7eee3          	bltu	a5,a3,26c <print_hex32+0xc>
     274:	040007b7          	lui	a5,0x4000
     278:	03000693          	li	a3,48
     27c:	04d7a023          	sw	a3,64(a5) # 4000040 <_stack_end+0x3efe840>
     280:	04478713          	addi	a4,a5,68
     284:	000106b7          	lui	a3,0x10
     288:	00072783          	lw	a5,0(a4)
     28c:	fed7eee3          	bltu	a5,a3,288 <print_hex32+0x28>
     290:	04000837          	lui	a6,0x4000
     294:	04080813          	addi	a6,a6,64 # 4000040 <_stack_end+0x3efe840>
     298:	07800793          	li	a5,120
     29c:	04000737          	lui	a4,0x4000
     2a0:	00f82023          	sw	a5,0(a6)
     2a4:	04470713          	addi	a4,a4,68 # 4000044 <_stack_end+0x3efe844>
     2a8:	01c00613          	li	a2,28
     2ac:	00900313          	li	t1,9
     2b0:	000106b7          	lui	a3,0x10
     2b4:	ffc00893          	li	a7,-4
     2b8:	00c557b3          	srl	a5,a0,a2
     2bc:	00f7f793          	andi	a5,a5,15
     2c0:	03778593          	addi	a1,a5,55
     2c4:	00f36463          	bltu	t1,a5,2cc <print_hex32+0x6c>
     2c8:	03078593          	addi	a1,a5,48
     2cc:	00072783          	lw	a5,0(a4)
     2d0:	fed7eee3          	bltu	a5,a3,2cc <print_hex32+0x6c>
     2d4:	00b82023          	sw	a1,0(a6)
     2d8:	ffc60613          	addi	a2,a2,-4 # fffc <__global_pointer+0xe358>
     2dc:	fd161ee3          	bne	a2,a7,2b8 <print_hex32+0x58>
     2e0:	00008067          	ret

000002e4 <handle_exception>:
     2e4:	00200793          	li	a5,2
     2e8:	1af80463          	beq	a6,a5,490 <handle_exception+0x1ac>
     2ec:	00b00793          	li	a5,11
     2f0:	12f80663          	beq	a6,a5,41c <handle_exception+0x138>
     2f4:	14081c63          	bnez	a6,44c <handle_exception+0x168>
     2f8:	00001637          	lui	a2,0x1
     2fc:	000018b7          	lui	a7,0x1
     300:	04000737          	lui	a4,0x4000
     304:	04000837          	lui	a6,0x4000
     308:	65060613          	addi	a2,a2,1616 # 1650 <morse_table+0x128>
     30c:	67f88893          	addi	a7,a7,1663 # 167f <morse_table+0x157>
     310:	04470713          	addi	a4,a4,68 # 4000044 <_stack_end+0x3efe844>
     314:	04080813          	addi	a6,a6,64 # 4000040 <_stack_end+0x3efe840>
     318:	00a00593          	li	a1,10
     31c:	000106b7          	lui	a3,0x10
     320:	00072783          	lw	a5,0(a4)
     324:	fed7eee3          	bltu	a5,a3,320 <handle_exception+0x3c>
     328:	00b82023          	sw	a1,0(a6)
     32c:	00160613          	addi	a2,a2,1
     330:	00064583          	lbu	a1,0(a2)
     334:	ff1616e3          	bne	a2,a7,320 <handle_exception+0x3c>
     338:	00001637          	lui	a2,0x1
     33c:	000018b7          	lui	a7,0x1
     340:	04000737          	lui	a4,0x4000
     344:	04000837          	lui	a6,0x4000
     348:	6c860613          	addi	a2,a2,1736 # 16c8 <morse_table+0x1a0>
     34c:	6db88893          	addi	a7,a7,1755 # 16db <morse_table+0x1b3>
     350:	04470713          	addi	a4,a4,68 # 4000044 <_stack_end+0x3efe844>
     354:	04080813          	addi	a6,a6,64 # 4000040 <_stack_end+0x3efe840>
     358:	04500593          	li	a1,69
     35c:	000106b7          	lui	a3,0x10
     360:	00072783          	lw	a5,0(a4)
     364:	fed7eee3          	bltu	a5,a3,360 <handle_exception+0x7c>
     368:	00b82023          	sw	a1,0(a6)
     36c:	00160613          	addi	a2,a2,1
     370:	00064583          	lbu	a1,0(a2)
     374:	ff1616e3          	bne	a2,a7,360 <handle_exception+0x7c>
     378:	04000737          	lui	a4,0x4000
     37c:	04470713          	addi	a4,a4,68 # 4000044 <_stack_end+0x3efe844>
     380:	000106b7          	lui	a3,0x10
     384:	00072783          	lw	a5,0(a4)
     388:	fed7eee3          	bltu	a5,a3,384 <handle_exception+0xa0>
     38c:	040007b7          	lui	a5,0x4000
     390:	03000693          	li	a3,48
     394:	04d7a023          	sw	a3,64(a5) # 4000040 <_stack_end+0x3efe840>
     398:	04478713          	addi	a4,a5,68
     39c:	000106b7          	lui	a3,0x10
     3a0:	00072783          	lw	a5,0(a4)
     3a4:	fed7eee3          	bltu	a5,a3,3a0 <handle_exception+0xbc>
     3a8:	04000837          	lui	a6,0x4000
     3ac:	04080813          	addi	a6,a6,64 # 4000040 <_stack_end+0x3efe840>
     3b0:	07800793          	li	a5,120
     3b4:	04000737          	lui	a4,0x4000
     3b8:	00f82023          	sw	a5,0(a6)
     3bc:	04470713          	addi	a4,a4,68 # 4000044 <_stack_end+0x3efe844>
     3c0:	01c00613          	li	a2,28
     3c4:	00900313          	li	t1,9
     3c8:	000106b7          	lui	a3,0x10
     3cc:	ffc00893          	li	a7,-4
     3d0:	00c557b3          	srl	a5,a0,a2
     3d4:	00f7f793          	andi	a5,a5,15
     3d8:	03778593          	addi	a1,a5,55
     3dc:	00f36463          	bltu	t1,a5,3e4 <handle_exception+0x100>
     3e0:	03078593          	addi	a1,a5,48
     3e4:	00072783          	lw	a5,0(a4)
     3e8:	fed7eee3          	bltu	a5,a3,3e4 <handle_exception+0x100>
     3ec:	00b82023          	sw	a1,0(a6)
     3f0:	ffc60613          	addi	a2,a2,-4
     3f4:	fd161ee3          	bne	a2,a7,3d0 <handle_exception+0xec>
     3f8:	04000737          	lui	a4,0x4000
     3fc:	04470713          	addi	a4,a4,68 # 4000044 <_stack_end+0x3efe844>
     400:	000106b7          	lui	a3,0x10
     404:	00072783          	lw	a5,0(a4)
     408:	fed7eee3          	bltu	a5,a3,404 <handle_exception+0x120>
     40c:	040007b7          	lui	a5,0x4000
     410:	00a00713          	li	a4,10
     414:	04e7a023          	sw	a4,64(a5) # 4000040 <_stack_end+0x3efe840>
     418:	0000006f          	j	418 <handle_exception+0x134>
     41c:	00400793          	li	a5,4
     420:	0af88a63          	beq	a7,a5,4d4 <handle_exception+0x1f0>
     424:	0f089463          	bne	a7,a6,50c <handle_exception+0x228>
     428:	04000737          	lui	a4,0x4000
     42c:	04470713          	addi	a4,a4,68 # 4000044 <_stack_end+0x3efe844>
     430:	000106b7          	lui	a3,0x10
     434:	00072783          	lw	a5,0(a4)
     438:	fed7eee3          	bltu	a5,a3,434 <handle_exception+0x150>
     43c:	040007b7          	lui	a5,0x4000
     440:	0ff57513          	zext.b	a0,a0
     444:	04a7a023          	sw	a0,64(a5) # 4000040 <_stack_end+0x3efe840>
     448:	00008067          	ret
     44c:	00001637          	lui	a2,0x1
     450:	000018b7          	lui	a7,0x1
     454:	04000737          	lui	a4,0x4000
     458:	04000837          	lui	a6,0x4000
     45c:	6a860613          	addi	a2,a2,1704 # 16a8 <morse_table+0x180>
     460:	6c488893          	addi	a7,a7,1732 # 16c4 <morse_table+0x19c>
     464:	04470713          	addi	a4,a4,68 # 4000044 <_stack_end+0x3efe844>
     468:	04080813          	addi	a6,a6,64 # 4000040 <_stack_end+0x3efe840>
     46c:	00a00593          	li	a1,10
     470:	000106b7          	lui	a3,0x10
     474:	00072783          	lw	a5,0(a4)
     478:	fed7eee3          	bltu	a5,a3,474 <handle_exception+0x190>
     47c:	00b82023          	sw	a1,0(a6)
     480:	00160613          	addi	a2,a2,1
     484:	00064583          	lbu	a1,0(a2)
     488:	ff1616e3          	bne	a2,a7,474 <handle_exception+0x190>
     48c:	eadff06f          	j	338 <handle_exception+0x54>
     490:	00001637          	lui	a2,0x1
     494:	000018b7          	lui	a7,0x1
     498:	04000737          	lui	a4,0x4000
     49c:	04000837          	lui	a6,0x4000
     4a0:	68060613          	addi	a2,a2,1664 # 1680 <morse_table+0x158>
     4a4:	6a288893          	addi	a7,a7,1698 # 16a2 <morse_table+0x17a>
     4a8:	04470713          	addi	a4,a4,68 # 4000044 <_stack_end+0x3efe844>
     4ac:	04080813          	addi	a6,a6,64 # 4000040 <_stack_end+0x3efe840>
     4b0:	00a00593          	li	a1,10
     4b4:	000106b7          	lui	a3,0x10
     4b8:	00072783          	lw	a5,0(a4)
     4bc:	fed7eee3          	bltu	a5,a3,4b8 <handle_exception+0x1d4>
     4c0:	00b82023          	sw	a1,0(a6)
     4c4:	00160613          	addi	a2,a2,1
     4c8:	00064583          	lbu	a1,0(a2)
     4cc:	ff1616e3          	bne	a2,a7,4b8 <handle_exception+0x1d4>
     4d0:	e69ff06f          	j	338 <handle_exception+0x54>
     4d4:	00054603          	lbu	a2,0(a0)
     4d8:	02060a63          	beqz	a2,50c <handle_exception+0x228>
     4dc:	04000737          	lui	a4,0x4000
     4e0:	040005b7          	lui	a1,0x4000
     4e4:	04470713          	addi	a4,a4,68 # 4000044 <_stack_end+0x3efe844>
     4e8:	04058593          	addi	a1,a1,64 # 4000040 <_stack_end+0x3efe840>
     4ec:	000106b7          	lui	a3,0x10
     4f0:	00072783          	lw	a5,0(a4)
     4f4:	fed7eee3          	bltu	a5,a3,4f0 <handle_exception+0x20c>
     4f8:	00c5a023          	sw	a2,0(a1)
     4fc:	00154603          	lbu	a2,1(a0)
     500:	00150513          	addi	a0,a0,1
     504:	fe0616e3          	bnez	a2,4f0 <handle_exception+0x20c>
     508:	00008067          	ret
     50c:	00008067          	ret

00000510 <nextprime>:
     510:	00200793          	li	a5,2
     514:	02a7c063          	blt	a5,a0,534 <nextprime+0x24>
     518:	00100693          	li	a3,1
     51c:	00a05863          	blez	a0,52c <nextprime+0x1c>
     520:	fff50793          	addi	a5,a0,-1
     524:	00f037b3          	snez	a5,a5
     528:	00278693          	addi	a3,a5,2
     52c:	00068513          	mv	a0,a3
     530:	00008067          	ret
     534:	00150513          	addi	a0,a0,1
     538:	00156693          	ori	a3,a0,1
     53c:	00300793          	li	a5,3
     540:	02f6e733          	rem	a4,a3,a5
     544:	4016d613          	srai	a2,a3,0x1
     548:	00260613          	addi	a2,a2,2
     54c:	00178793          	addi	a5,a5,1
     550:	00070a63          	beqz	a4,564 <nextprime+0x54>
     554:	fcf60ce3          	beq	a2,a5,52c <nextprime+0x1c>
     558:	02f6e733          	rem	a4,a3,a5
     55c:	00178793          	addi	a5,a5,1
     560:	fe071ae3          	bnez	a4,554 <nextprime+0x44>
     564:	00268693          	addi	a3,a3,2 # 10002 <__global_pointer+0xe35e>
     568:	fd5ff06f          	j	53c <nextprime+0x2c>

0000056c <delay>:
     56c:	ff010113          	addi	sp,sp,-16
     570:	00012623          	sw	zero,12(sp)
     574:	00c12783          	lw	a5,12(sp)
     578:	00a7dc63          	bge	a5,a0,590 <delay+0x24>
     57c:	00c12783          	lw	a5,12(sp)
     580:	00178793          	addi	a5,a5,1
     584:	00f12623          	sw	a5,12(sp)
     588:	00c12783          	lw	a5,12(sp)
     58c:	fea7c8e3          	blt	a5,a0,57c <delay+0x10>
     590:	01010113          	addi	sp,sp,16
     594:	00008067          	ret

00000598 <set_direction>:
     598:	000017b7          	lui	a5,0x1
     59c:	4a47a783          	lw	a5,1188(a5) # 14a4 <direction>
     5a0:	0007a703          	lw	a4,0(a5)
     5a4:	00058863          	beqz	a1,5b4 <set_direction+0x1c>
     5a8:	00e56533          	or	a0,a0,a4
     5ac:	00a7a023          	sw	a0,0(a5)
     5b0:	00008067          	ret
     5b4:	fff54513          	not	a0,a0
     5b8:	00e57533          	and	a0,a0,a4
     5bc:	00a7a023          	sw	a0,0(a5)
     5c0:	00008067          	ret

000005c4 <set_data>:
     5c4:	000017b7          	lui	a5,0x1
     5c8:	4a87a783          	lw	a5,1192(a5) # 14a8 <data>
     5cc:	0007a703          	lw	a4,0(a5)
     5d0:	00058863          	beqz	a1,5e0 <set_data+0x1c>
     5d4:	00e56533          	or	a0,a0,a4
     5d8:	00a7a023          	sw	a0,0(a5)
     5dc:	00008067          	ret
     5e0:	fff54513          	not	a0,a0
     5e4:	00e57533          	and	a0,a0,a4
     5e8:	00a7a023          	sw	a0,0(a5)
     5ec:	00008067          	ret

000005f0 <get_data>:
     5f0:	000017b7          	lui	a5,0x1
     5f4:	4a87a783          	lw	a5,1192(a5) # 14a8 <data>
     5f8:	0007a783          	lw	a5,0(a5)
     5fc:	00f57533          	and	a0,a0,a5
     600:	00008067          	ret

00000604 <spi_init>:
     604:	000017b7          	lui	a5,0x1
     608:	4a47a703          	lw	a4,1188(a5) # 14a4 <direction>
     60c:	000017b7          	lui	a5,0x1
     610:	4a87a783          	lw	a5,1192(a5) # 14a8 <data>
     614:	00072683          	lw	a3,0(a4)
     618:	0336e693          	ori	a3,a3,51
     61c:	00d72023          	sw	a3,0(a4)
     620:	00072683          	lw	a3,0(a4)
     624:	fbf6f693          	andi	a3,a3,-65
     628:	00d72023          	sw	a3,0(a4)
     62c:	0007a703          	lw	a4,0(a5)
     630:	00276713          	ori	a4,a4,2
     634:	00e7a023          	sw	a4,0(a5)
     638:	0007a703          	lw	a4,0(a5)
     63c:	ffe77713          	andi	a4,a4,-2
     640:	00e7a023          	sw	a4,0(a5)
     644:	00008067          	ret

00000648 <spi_transfer>:
     648:	000017b7          	lui	a5,0x1
     64c:	4a87a683          	lw	a3,1192(a5) # 14a8 <data>
     650:	00050613          	mv	a2,a0
     654:	ff010113          	addi	sp,sp,-16
     658:	00000513          	li	a0,0
     65c:	00800593          	li	a1,8
     660:	00900713          	li	a4,9
     664:	01861793          	slli	a5,a2,0x18
     668:	4187d793          	srai	a5,a5,0x18
     66c:	0807d663          	bgez	a5,6f8 <spi_transfer+0xb0>
     670:	0006a783          	lw	a5,0(a3)
     674:	0107e793          	ori	a5,a5,16
     678:	00f6a023          	sw	a5,0(a3)
     67c:	0006a783          	lw	a5,0(a3)
     680:	00161613          	slli	a2,a2,0x1
     684:	0017e793          	ori	a5,a5,1
     688:	00f6a023          	sw	a5,0(a3)
     68c:	00012423          	sw	zero,8(sp)
     690:	00812783          	lw	a5,8(sp)
     694:	00f74c63          	blt	a4,a5,6ac <spi_transfer+0x64>
     698:	00812783          	lw	a5,8(sp)
     69c:	00178793          	addi	a5,a5,1
     6a0:	00f12423          	sw	a5,8(sp)
     6a4:	00812783          	lw	a5,8(sp)
     6a8:	fef758e3          	bge	a4,a5,698 <spi_transfer+0x50>
     6ac:	0006a783          	lw	a5,0(a3)
     6b0:	0407f793          	andi	a5,a5,64
     6b4:	00078463          	beqz	a5,6bc <spi_transfer+0x74>
     6b8:	00156513          	ori	a0,a0,1
     6bc:	0006a783          	lw	a5,0(a3)
     6c0:	ffe7f793          	andi	a5,a5,-2
     6c4:	00f6a023          	sw	a5,0(a3)
     6c8:	00012623          	sw	zero,12(sp)
     6cc:	00c12783          	lw	a5,12(sp)
     6d0:	00f74c63          	blt	a4,a5,6e8 <spi_transfer+0xa0>
     6d4:	00c12783          	lw	a5,12(sp)
     6d8:	00178793          	addi	a5,a5,1
     6dc:	00f12623          	sw	a5,12(sp)
     6e0:	00c12783          	lw	a5,12(sp)
     6e4:	fef758e3          	bge	a4,a5,6d4 <spi_transfer+0x8c>
     6e8:	fff58593          	addi	a1,a1,-1
     6ec:	f6059ce3          	bnez	a1,664 <spi_transfer+0x1c>
     6f0:	01010113          	addi	sp,sp,16
     6f4:	00008067          	ret
     6f8:	0006a783          	lw	a5,0(a3)
     6fc:	fef7f793          	andi	a5,a5,-17
     700:	00f6a023          	sw	a5,0(a3)
     704:	f79ff06f          	j	67c <spi_transfer+0x34>

00000708 <send_strobe>:
     708:	ff010113          	addi	sp,sp,-16
     70c:	000017b7          	lui	a5,0x1
     710:	00812423          	sw	s0,8(sp)
     714:	4a87a403          	lw	s0,1192(a5) # 14a8 <data>
     718:	00112623          	sw	ra,12(sp)
     71c:	00042783          	lw	a5,0(s0)
     720:	ffd7f793          	andi	a5,a5,-3
     724:	00f42023          	sw	a5,0(s0)
     728:	f21ff0ef          	jal	648 <spi_transfer>
     72c:	00042783          	lw	a5,0(s0)
     730:	00c12083          	lw	ra,12(sp)
     734:	0027e793          	ori	a5,a5,2
     738:	00f42023          	sw	a5,0(s0)
     73c:	00812403          	lw	s0,8(sp)
     740:	01010113          	addi	sp,sp,16
     744:	00008067          	ret

00000748 <reset_CC1101>:
     748:	fe010113          	addi	sp,sp,-32
     74c:	000017b7          	lui	a5,0x1
     750:	00812c23          	sw	s0,24(sp)
     754:	4a87a403          	lw	s0,1192(a5) # 14a8 <data>
     758:	00112e23          	sw	ra,28(sp)
     75c:	00900713          	li	a4,9
     760:	00042783          	lw	a5,0(s0)
     764:	ffd7f793          	andi	a5,a5,-3
     768:	00f42023          	sw	a5,0(s0)
     76c:	00012623          	sw	zero,12(sp)
     770:	00c12783          	lw	a5,12(sp)
     774:	00f74c63          	blt	a4,a5,78c <reset_CC1101+0x44>
     778:	00c12783          	lw	a5,12(sp)
     77c:	00178793          	addi	a5,a5,1
     780:	00f12623          	sw	a5,12(sp)
     784:	00c12783          	lw	a5,12(sp)
     788:	fef758e3          	bge	a4,a5,778 <reset_CC1101+0x30>
     78c:	00042783          	lw	a5,0(s0)
     790:	00900713          	li	a4,9
     794:	0027e793          	ori	a5,a5,2
     798:	00f42023          	sw	a5,0(s0)
     79c:	00012423          	sw	zero,8(sp)
     7a0:	00812783          	lw	a5,8(sp)
     7a4:	00f74c63          	blt	a4,a5,7bc <reset_CC1101+0x74>
     7a8:	00812783          	lw	a5,8(sp)
     7ac:	00178793          	addi	a5,a5,1
     7b0:	00f12423          	sw	a5,8(sp)
     7b4:	00812783          	lw	a5,8(sp)
     7b8:	fef758e3          	bge	a4,a5,7a8 <reset_CC1101+0x60>
     7bc:	00042783          	lw	a5,0(s0)
     7c0:	03000513          	li	a0,48
     7c4:	ffd7f793          	andi	a5,a5,-3
     7c8:	00f42023          	sw	a5,0(s0)
     7cc:	e7dff0ef          	jal	648 <spi_transfer>
     7d0:	00042783          	lw	a5,0(s0)
     7d4:	3e700713          	li	a4,999
     7d8:	0027e793          	ori	a5,a5,2
     7dc:	00f42023          	sw	a5,0(s0)
     7e0:	00012223          	sw	zero,4(sp)
     7e4:	00412783          	lw	a5,4(sp)
     7e8:	00f74c63          	blt	a4,a5,800 <__heap_size>
     7ec:	00412783          	lw	a5,4(sp)
     7f0:	00178793          	addi	a5,a5,1
     7f4:	00f12223          	sw	a5,4(sp)
     7f8:	00412783          	lw	a5,4(sp)
     7fc:	fef758e3          	bge	a4,a5,7ec <reset_CC1101+0xa4>
     800:	01c12083          	lw	ra,28(sp)
     804:	01812403          	lw	s0,24(sp)
     808:	02010113          	addi	sp,sp,32
     80c:	00008067          	ret

00000810 <write_reg_CC1101>:
     810:	fe010113          	addi	sp,sp,-32
     814:	000017b7          	lui	a5,0x1
     818:	00812c23          	sw	s0,24(sp)
     81c:	4a87a403          	lw	s0,1192(a5) # 14a8 <data>
     820:	00112e23          	sw	ra,28(sp)
     824:	00b12623          	sw	a1,12(sp)
     828:	00042783          	lw	a5,0(s0)
     82c:	ffd7f793          	andi	a5,a5,-3
     830:	00f42023          	sw	a5,0(s0)
     834:	e15ff0ef          	jal	648 <spi_transfer>
     838:	00c12503          	lw	a0,12(sp)
     83c:	e0dff0ef          	jal	648 <spi_transfer>
     840:	00042783          	lw	a5,0(s0)
     844:	01c12083          	lw	ra,28(sp)
     848:	0027e793          	ori	a5,a5,2
     84c:	00f42023          	sw	a5,0(s0)
     850:	01812403          	lw	s0,24(sp)
     854:	02010113          	addi	sp,sp,32
     858:	00008067          	ret

0000085c <print_bi>:
     85c:	fe010113          	addi	sp,sp,-32
     860:	01212823          	sw	s2,16(sp)
     864:	01412423          	sw	s4,8(sp)
     868:	00001937          	lui	s2,0x1
     86c:	00001a37          	lui	s4,0x1
     870:	00812c23          	sw	s0,24(sp)
     874:	00912a23          	sw	s1,20(sp)
     878:	01312623          	sw	s3,12(sp)
     87c:	00112e23          	sw	ra,28(sp)
     880:	00050413          	mv	s0,a0
     884:	6e090913          	addi	s2,s2,1760 # 16e0 <morse_table+0x1b8>
     888:	6dca0a13          	addi	s4,s4,1756 # 16dc <morse_table+0x1b4>
     88c:	00800493          	li	s1,8
     890:	00100993          	li	s3,1
     894:	0180006f          	j	8ac <print_bi+0x50>
     898:	00141413          	slli	s0,s0,0x1
     89c:	fff48493          	addi	s1,s1,-1
     8a0:	8f1ff0ef          	jal	190 <print>
     8a4:	0ff47413          	zext.b	s0,s0
     8a8:	02048463          	beqz	s1,8d0 <print_bi+0x74>
     8ac:	00745793          	srli	a5,s0,0x7
     8b0:	00090513          	mv	a0,s2
     8b4:	ff3792e3          	bne	a5,s3,898 <print_bi+0x3c>
     8b8:	000a0513          	mv	a0,s4
     8bc:	00141413          	slli	s0,s0,0x1
     8c0:	fff48493          	addi	s1,s1,-1
     8c4:	8cdff0ef          	jal	190 <print>
     8c8:	0ff47413          	zext.b	s0,s0
     8cc:	fe0490e3          	bnez	s1,8ac <print_bi+0x50>
     8d0:	01812403          	lw	s0,24(sp)
     8d4:	01c12083          	lw	ra,28(sp)
     8d8:	01412483          	lw	s1,20(sp)
     8dc:	01012903          	lw	s2,16(sp)
     8e0:	00c12983          	lw	s3,12(sp)
     8e4:	00812a03          	lw	s4,8(sp)
     8e8:	00001537          	lui	a0,0x1
     8ec:	6e450513          	addi	a0,a0,1764 # 16e4 <morse_table+0x1bc>
     8f0:	02010113          	addi	sp,sp,32
     8f4:	89dff06f          	j	190 <print>

000008f8 <is_new_file>:
     8f8:	a01007b7          	lui	a5,0xa0100
     8fc:	0007c503          	lbu	a0,0(a5) # a0100000 <_stack_end+0x9fffe800>
     900:	f0150513          	addi	a0,a0,-255
     904:	00a03533          	snez	a0,a0
     908:	00008067          	ret

0000090c <transfer_new_file>:
     90c:	fd010113          	addi	sp,sp,-48
     910:	00a107a3          	sb	a0,15(sp)
     914:	00012e23          	sw	zero,28(sp)
     918:	01c12783          	lw	a5,28(sp)
     91c:	00002737          	lui	a4,0x2
     920:	02112623          	sw	ra,44(sp)
     924:	70f70713          	addi	a4,a4,1807 # 270f <__global_pointer+0xa6b>
     928:	00f74c63          	blt	a4,a5,940 <transfer_new_file+0x34>
     92c:	01c12783          	lw	a5,28(sp)
     930:	00178793          	addi	a5,a5,1
     934:	00f12e23          	sw	a5,28(sp)
     938:	01c12783          	lw	a5,28(sp)
     93c:	fef758e3          	bge	a4,a5,92c <transfer_new_file+0x20>
     940:	001007b7          	lui	a5,0x100
     944:	0287a503          	lw	a0,40(a5) # 100028 <__stack_size+0x28>
     948:	00a12423          	sw	a0,8(sp)
     94c:	87dff0ef          	jal	1c8 <print_dec>
     950:	00812503          	lw	a0,8(sp)
     954:	00012c23          	sw	zero,24(sp)
     958:	01812783          	lw	a5,24(sp)
     95c:	00251713          	slli	a4,a0,0x2
     960:	00a70733          	add	a4,a4,a0
     964:	00171713          	slli	a4,a4,0x1
     968:	00e7dc63          	bge	a5,a4,980 <transfer_new_file+0x74>
     96c:	01812783          	lw	a5,24(sp)
     970:	00178793          	addi	a5,a5,1
     974:	00f12c23          	sw	a5,24(sp)
     978:	01812783          	lw	a5,24(sp)
     97c:	fee7c8e3          	blt	a5,a4,96c <transfer_new_file+0x60>
     980:	fd500793          	li	a5,-43
     984:	02f54e63          	blt	a0,a5,9c0 <transfer_new_file+0xb4>
     988:	02c50513          	addi	a0,a0,44
     98c:	00000713          	li	a4,0
     990:	001005b7          	lui	a1,0x100
     994:	00f14603          	lbu	a2,15(sp)
     998:	00b707b3          	add	a5,a4,a1
     99c:	0007c683          	lbu	a3,0(a5)
     9a0:	00261793          	slli	a5,a2,0x2
     9a4:	00c787b3          	add	a5,a5,a2
     9a8:	01479793          	slli	a5,a5,0x14
     9ac:	00e787b3          	add	a5,a5,a4
     9b0:	00b787b3          	add	a5,a5,a1
     9b4:	00d78023          	sb	a3,0(a5)
     9b8:	00170713          	addi	a4,a4,1
     9bc:	fca71ce3          	bne	a4,a0,994 <transfer_new_file+0x88>
     9c0:	001007b7          	lui	a5,0x100
     9c4:	fff00713          	li	a4,-1
     9c8:	00e78023          	sb	a4,0(a5) # 100000 <__stack_size>
     9cc:	02c12083          	lw	ra,44(sp)
     9d0:	03010113          	addi	sp,sp,48
     9d4:	00008067          	ret

000009d8 <transmit_current_file>:
     9d8:	fe010113          	addi	sp,sp,-32
     9dc:	000017b7          	lui	a5,0x1
     9e0:	00812c23          	sw	s0,24(sp)
     9e4:	00050413          	mv	s0,a0
     9e8:	6e878513          	addi	a0,a5,1768 # 16e8 <morse_table+0x1c0>
     9ec:	00112e23          	sw	ra,28(sp)
     9f0:	fa0ff0ef          	jal	190 <print>
     9f4:	00241813          	slli	a6,s0,0x2
     9f8:	00880833          	add	a6,a6,s0
     9fc:	01481813          	slli	a6,a6,0x14
     a00:	001007b7          	lui	a5,0x100
     a04:	010787b3          	add	a5,a5,a6
     a08:	0287a403          	lw	s0,40(a5) # 100028 <__stack_size+0x28>
     a0c:	01012623          	sw	a6,12(sp)
     a10:	00040513          	mv	a0,s0
     a14:	fb4ff0ef          	jal	1c8 <print_dec>
     a18:	00001537          	lui	a0,0x1
     a1c:	6fc50513          	addi	a0,a0,1788 # 16fc <morse_table+0x1d4>
     a20:	f70ff0ef          	jal	190 <print>
     a24:	06805863          	blez	s0,a94 <transmit_current_file+0xbc>
     a28:	00c12803          	lw	a6,12(sp)
     a2c:	00001737          	lui	a4,0x1
     a30:	001007b7          	lui	a5,0x100
     a34:	02c78793          	addi	a5,a5,44 # 10002c <__stack_size+0x2c>
     a38:	4a872603          	lw	a2,1192(a4) # 14a8 <data>
     a3c:	00f80833          	add	a6,a6,a5
     a40:	010408b3          	add	a7,s0,a6
     a44:	00000793          	li	a5,0
     a48:	0fe00513          	li	a0,254
     a4c:	00084583          	lbu	a1,0(a6)
     a50:	06e00713          	li	a4,110
     a54:	0ff5f593          	zext.b	a1,a1
     a58:	0180006f          	j	a70 <transmit_current_file+0x98>
     a5c:	0206e693          	ori	a3,a3,32
     a60:	00d62023          	sw	a3,0(a2)
     a64:	fff70713          	addi	a4,a4,-1
     a68:	f0178793          	addi	a5,a5,-255
     a6c:	02070063          	beqz	a4,a8c <transmit_current_file+0xb4>
     a70:	00062683          	lw	a3,0(a2)
     a74:	00b787b3          	add	a5,a5,a1
     a78:	fef562e3          	bltu	a0,a5,a5c <transmit_current_file+0x84>
     a7c:	fdf6f693          	andi	a3,a3,-33
     a80:	00d62023          	sw	a3,0(a2)
     a84:	fff70713          	addi	a4,a4,-1
     a88:	fe0714e3          	bnez	a4,a70 <transmit_current_file+0x98>
     a8c:	00180813          	addi	a6,a6,1
     a90:	fb181ee3          	bne	a6,a7,a4c <transmit_current_file+0x74>
     a94:	01c12083          	lw	ra,28(sp)
     a98:	01812403          	lw	s0,24(sp)
     a9c:	02010113          	addi	sp,sp,32
     aa0:	00008067          	ret

00000aa4 <config_CC1101>:
     aa4:	ff010113          	addi	sp,sp,-16
     aa8:	000017b7          	lui	a5,0x1
     aac:	00812423          	sw	s0,8(sp)
     ab0:	4a87a403          	lw	s0,1192(a5) # 14a8 <data>
     ab4:	00112623          	sw	ra,12(sp)
     ab8:	00200513          	li	a0,2
     abc:	00042783          	lw	a5,0(s0)
     ac0:	ffd7f793          	andi	a5,a5,-3
     ac4:	00f42023          	sw	a5,0(s0)
     ac8:	b81ff0ef          	jal	648 <spi_transfer>
     acc:	00d00513          	li	a0,13
     ad0:	b79ff0ef          	jal	648 <spi_transfer>
     ad4:	00042783          	lw	a5,0(s0)
     ad8:	00800513          	li	a0,8
     adc:	0027e793          	ori	a5,a5,2
     ae0:	00f42023          	sw	a5,0(s0)
     ae4:	00042783          	lw	a5,0(s0)
     ae8:	ffd7f793          	andi	a5,a5,-3
     aec:	00f42023          	sw	a5,0(s0)
     af0:	b59ff0ef          	jal	648 <spi_transfer>
     af4:	03200513          	li	a0,50
     af8:	b51ff0ef          	jal	648 <spi_transfer>
     afc:	00042783          	lw	a5,0(s0)
     b00:	01200513          	li	a0,18
     b04:	0027e793          	ori	a5,a5,2
     b08:	00f42023          	sw	a5,0(s0)
     b0c:	00042783          	lw	a5,0(s0)
     b10:	ffd7f793          	andi	a5,a5,-3
     b14:	00f42023          	sw	a5,0(s0)
     b18:	b31ff0ef          	jal	648 <spi_transfer>
     b1c:	04000513          	li	a0,64
     b20:	b29ff0ef          	jal	648 <spi_transfer>
     b24:	00042783          	lw	a5,0(s0)
     b28:	00d00513          	li	a0,13
     b2c:	0027e793          	ori	a5,a5,2
     b30:	00f42023          	sw	a5,0(s0)
     b34:	00042783          	lw	a5,0(s0)
     b38:	ffd7f793          	andi	a5,a5,-3
     b3c:	00f42023          	sw	a5,0(s0)
     b40:	b09ff0ef          	jal	648 <spi_transfer>
     b44:	01000513          	li	a0,16
     b48:	b01ff0ef          	jal	648 <spi_transfer>
     b4c:	00042783          	lw	a5,0(s0)
     b50:	00e00513          	li	a0,14
     b54:	0027e793          	ori	a5,a5,2
     b58:	00f42023          	sw	a5,0(s0)
     b5c:	00042783          	lw	a5,0(s0)
     b60:	ffd7f793          	andi	a5,a5,-3
     b64:	00f42023          	sw	a5,0(s0)
     b68:	ae1ff0ef          	jal	648 <spi_transfer>
     b6c:	0a700513          	li	a0,167
     b70:	ad9ff0ef          	jal	648 <spi_transfer>
     b74:	00042783          	lw	a5,0(s0)
     b78:	00f00513          	li	a0,15
     b7c:	0027e793          	ori	a5,a5,2
     b80:	00f42023          	sw	a5,0(s0)
     b84:	00042783          	lw	a5,0(s0)
     b88:	ffd7f793          	andi	a5,a5,-3
     b8c:	00f42023          	sw	a5,0(s0)
     b90:	ab9ff0ef          	jal	648 <spi_transfer>
     b94:	06200513          	li	a0,98
     b98:	ab1ff0ef          	jal	648 <spi_transfer>
     b9c:	00042783          	lw	a5,0(s0)
     ba0:	01500513          	li	a0,21
     ba4:	0027e793          	ori	a5,a5,2
     ba8:	00f42023          	sw	a5,0(s0)
     bac:	00042783          	lw	a5,0(s0)
     bb0:	ffd7f793          	andi	a5,a5,-3
     bb4:	00f42023          	sw	a5,0(s0)
     bb8:	a91ff0ef          	jal	648 <spi_transfer>
     bbc:	04700513          	li	a0,71
     bc0:	a89ff0ef          	jal	648 <spi_transfer>
     bc4:	00042783          	lw	a5,0(s0)
     bc8:	01800513          	li	a0,24
     bcc:	0027e793          	ori	a5,a5,2
     bd0:	00f42023          	sw	a5,0(s0)
     bd4:	00042783          	lw	a5,0(s0)
     bd8:	ffd7f793          	andi	a5,a5,-3
     bdc:	00f42023          	sw	a5,0(s0)
     be0:	a69ff0ef          	jal	648 <spi_transfer>
     be4:	01800513          	li	a0,24
     be8:	a61ff0ef          	jal	648 <spi_transfer>
     bec:	00042783          	lw	a5,0(s0)
     bf0:	03e00513          	li	a0,62
     bf4:	0027e793          	ori	a5,a5,2
     bf8:	00f42023          	sw	a5,0(s0)
     bfc:	00042783          	lw	a5,0(s0)
     c00:	ffd7f793          	andi	a5,a5,-3
     c04:	00f42023          	sw	a5,0(s0)
     c08:	a41ff0ef          	jal	648 <spi_transfer>
     c0c:	0c000513          	li	a0,192
     c10:	a39ff0ef          	jal	648 <spi_transfer>
     c14:	00042783          	lw	a5,0(s0)
     c18:	03b00513          	li	a0,59
     c1c:	0027e793          	ori	a5,a5,2
     c20:	00f42023          	sw	a5,0(s0)
     c24:	00042783          	lw	a5,0(s0)
     c28:	ffd7f793          	andi	a5,a5,-3
     c2c:	00f42023          	sw	a5,0(s0)
     c30:	a19ff0ef          	jal	648 <spi_transfer>
     c34:	00042783          	lw	a5,0(s0)
     c38:	03500513          	li	a0,53
     c3c:	0027e793          	ori	a5,a5,2
     c40:	00f42023          	sw	a5,0(s0)
     c44:	00042783          	lw	a5,0(s0)
     c48:	ffd7f793          	andi	a5,a5,-3
     c4c:	00f42023          	sw	a5,0(s0)
     c50:	9f9ff0ef          	jal	648 <spi_transfer>
     c54:	00042783          	lw	a5,0(s0)
     c58:	00c12083          	lw	ra,12(sp)
     c5c:	0027e793          	ori	a5,a5,2
     c60:	00f42023          	sw	a5,0(s0)
     c64:	00812403          	lw	s0,8(sp)
     c68:	01010113          	addi	sp,sp,16
     c6c:	00008067          	ret

00000c70 <set_displays>:
     c70:	004007b7          	lui	a5,0x400
     c74:	00578793          	addi	a5,a5,5 # 400005 <_stack_end+0x2fe805>
     c78:	00f50533          	add	a0,a0,a5
     c7c:	00158593          	addi	a1,a1,1 # 100001 <__stack_size+0x1>
     c80:	00a00793          	li	a5,10
     c84:	00451513          	slli	a0,a0,0x4
     c88:	02b7e263          	bltu	a5,a1,cac <set_displays+0x3c>
     c8c:	000017b7          	lui	a5,0x1
     c90:	4ac78793          	addi	a5,a5,1196 # 14ac <data+0x4>
     c94:	00259593          	slli	a1,a1,0x2
     c98:	00f585b3          	add	a1,a1,a5
     c9c:	0005a783          	lw	a5,0(a1)
     ca0:	00078067          	jr	a5
     ca4:	07f00793          	li	a5,127
     ca8:	00f52023          	sw	a5,0(a0)
     cac:	00008067          	ret
     cb0:	00052023          	sw	zero,0(a0)
     cb4:	00008067          	ret
     cb8:	01800793          	li	a5,24
     cbc:	00f52023          	sw	a5,0(a0)
     cc0:	00008067          	ret
     cc4:	04000793          	li	a5,64
     cc8:	00f52023          	sw	a5,0(a0)
     ccc:	00008067          	ret
     cd0:	07900793          	li	a5,121
     cd4:	00f52023          	sw	a5,0(a0)
     cd8:	00008067          	ret
     cdc:	02400793          	li	a5,36
     ce0:	00f52023          	sw	a5,0(a0)
     ce4:	00008067          	ret
     ce8:	03000793          	li	a5,48
     cec:	00f52023          	sw	a5,0(a0)
     cf0:	00008067          	ret
     cf4:	01900793          	li	a5,25
     cf8:	00f52023          	sw	a5,0(a0)
     cfc:	00008067          	ret
     d00:	01200793          	li	a5,18
     d04:	00f52023          	sw	a5,0(a0)
     d08:	00008067          	ret
     d0c:	00200793          	li	a5,2
     d10:	00f52023          	sw	a5,0(a0)
     d14:	00008067          	ret
     d18:	07800793          	li	a5,120
     d1c:	00f52023          	sw	a5,0(a0)
     d20:	00008067          	ret

00000d24 <get_sw>:
     d24:	040007b7          	lui	a5,0x4000
     d28:	0107a503          	lw	a0,16(a5) # 4000010 <_stack_end+0x3efe810>
     d2c:	3ff57513          	andi	a0,a0,1023
     d30:	00008067          	ret

00000d34 <get_btn>:
     d34:	040007b7          	lui	a5,0x4000
     d38:	0d07a503          	lw	a0,208(a5) # 40000d0 <_stack_end+0x3efe8d0>
     d3c:	00157513          	andi	a0,a0,1
     d40:	00008067          	ret

00000d44 <is_new_text>:
     d44:	a01007b7          	lui	a5,0xa0100
     d48:	0007c503          	lbu	a0,0(a5) # a0100000 <_stack_end+0x9fffe800>
     d4c:	f0150513          	addi	a0,a0,-255
     d50:	00a03533          	snez	a0,a0
     d54:	00008067          	ret

00000d58 <morse_send_string>:
     d58:	fd010113          	addi	sp,sp,-48
     d5c:	02812623          	sw	s0,44(sp)
     d60:	00054403          	lbu	s0,0(a0)
     d64:	10040863          	beqz	s0,e74 <morse_send_string+0x11c>
     d68:	000017b7          	lui	a5,0x1
     d6c:	4a87a683          	lw	a3,1192(a5) # 14a8 <data>
     d70:	00001f37          	lui	t5,0x1
     d74:	00160837          	lui	a6,0x160
     d78:	000017b7          	lui	a5,0x1
     d7c:	00075637          	lui	a2,0x75
     d80:	00334eb7          	lui	t4,0x334
     d84:	00050e13          	mv	t3,a0
     d88:	528f0f13          	addi	t5,t5,1320 # 1528 <morse_table>
     d8c:	8ff80813          	addi	a6,a6,-1793 # 15f8ff <_stack_end+0x5e0ff>
     d90:	bb778793          	addi	a5,a5,-1097 # bb7 <config_CC1101+0x113>
     d94:	2ff60613          	addi	a2,a2,767 # 752ff <__global_pointer+0x7365b>
     d98:	4ffe8e93          	addi	t4,t4,1279 # 3344ff <_stack_end+0x232cff>
     d9c:	01900f93          	li	t6,25
     da0:	02500513          	li	a0,37
     da4:	02000293          	li	t0,32
     da8:	02e00893          	li	a7,46
     dac:	02d00313          	li	t1,45
     db0:	f9f40713          	addi	a4,s0,-97
     db4:	0ff77713          	zext.b	a4,a4
     db8:	00efe663          	bltu	t6,a4,dc4 <morse_send_string+0x6c>
     dbc:	fe040413          	addi	s0,s0,-32
     dc0:	0ff47413          	zext.b	s0,s0
     dc4:	000f0593          	mv	a1,t5
     dc8:	00000713          	li	a4,0
     dcc:	00c0006f          	j	dd8 <morse_send_string+0x80>
     dd0:	00170713          	addi	a4,a4,1
     dd4:	1aa70c63          	beq	a4,a0,f8c <morse_send_string+0x234>
     dd8:	0005c383          	lbu	t2,0(a1)
     ddc:	00858593          	addi	a1,a1,8
     de0:	fe8398e3          	bne	t2,s0,dd0 <morse_send_string+0x78>
     de4:	00371713          	slli	a4,a4,0x3
     de8:	00ef0733          	add	a4,t5,a4
     dec:	00472583          	lw	a1,4(a4)
     df0:	0005c703          	lbu	a4,0(a1)
     df4:	18070c63          	beqz	a4,f8c <morse_send_string+0x234>
     df8:	08570463          	beq	a4,t0,e80 <morse_send_string+0x128>
     dfc:	0d170063          	beq	a4,a7,ebc <morse_send_string+0x164>
     e00:	12670263          	beq	a4,t1,f24 <morse_send_string+0x1cc>
     e04:	0006a703          	lw	a4,0(a3)
     e08:	fdf77713          	andi	a4,a4,-33
     e0c:	00e6a023          	sw	a4,0(a3)
     e10:	00012c23          	sw	zero,24(sp)
     e14:	01812703          	lw	a4,24(sp)
     e18:	00e64c63          	blt	a2,a4,e30 <morse_send_string+0xd8>
     e1c:	01812703          	lw	a4,24(sp)
     e20:	00170713          	addi	a4,a4,1
     e24:	00e12c23          	sw	a4,24(sp)
     e28:	01812703          	lw	a4,24(sp)
     e2c:	fee658e3          	bge	a2,a4,e1c <morse_send_string+0xc4>
     e30:	0015c703          	lbu	a4,1(a1)
     e34:	00158593          	addi	a1,a1,1
     e38:	fc0712e3          	bnez	a4,dfc <morse_send_string+0xa4>
     e3c:	0006a703          	lw	a4,0(a3)
     e40:	fdf77713          	andi	a4,a4,-33
     e44:	00e6a023          	sw	a4,0(a3)
     e48:	00012e23          	sw	zero,28(sp)
     e4c:	01c12703          	lw	a4,28(sp)
     e50:	00e84c63          	blt	a6,a4,e68 <morse_send_string+0x110>
     e54:	01c12703          	lw	a4,28(sp)
     e58:	00170713          	addi	a4,a4,1
     e5c:	00e12e23          	sw	a4,28(sp)
     e60:	01c12703          	lw	a4,28(sp)
     e64:	fee858e3          	bge	a6,a4,e54 <morse_send_string+0xfc>
     e68:	001e4403          	lbu	s0,1(t3)
     e6c:	001e0e13          	addi	t3,t3,1
     e70:	f40410e3          	bnez	s0,db0 <morse_send_string+0x58>
     e74:	02c12403          	lw	s0,44(sp)
     e78:	03010113          	addi	sp,sp,48
     e7c:	00008067          	ret
     e80:	0006a703          	lw	a4,0(a3)
     e84:	fdf77713          	andi	a4,a4,-33
     e88:	00e6a023          	sw	a4,0(a3)
     e8c:	00012223          	sw	zero,4(sp)
     e90:	00412703          	lw	a4,4(sp)
     e94:	fceecae3          	blt	t4,a4,e68 <morse_send_string+0x110>
     e98:	00412703          	lw	a4,4(sp)
     e9c:	00170713          	addi	a4,a4,1
     ea0:	00e12223          	sw	a4,4(sp)
     ea4:	00412703          	lw	a4,4(sp)
     ea8:	feeed8e3          	bge	t4,a4,e98 <morse_send_string+0x140>
     eac:	001e4403          	lbu	s0,1(t3)
     eb0:	001e0e13          	addi	t3,t3,1
     eb4:	ee041ee3          	bnez	s0,db0 <morse_send_string+0x58>
     eb8:	fbdff06f          	j	e74 <morse_send_string+0x11c>
     ebc:	07800393          	li	t2,120
     ec0:	0006a703          	lw	a4,0(a3)
     ec4:	02076713          	ori	a4,a4,32
     ec8:	00e6a023          	sw	a4,0(a3)
     ecc:	00012423          	sw	zero,8(sp)
     ed0:	00812703          	lw	a4,8(sp)
     ed4:	00e7cc63          	blt	a5,a4,eec <morse_send_string+0x194>
     ed8:	00812703          	lw	a4,8(sp)
     edc:	00170713          	addi	a4,a4,1
     ee0:	00e12423          	sw	a4,8(sp)
     ee4:	00812703          	lw	a4,8(sp)
     ee8:	fee7d8e3          	bge	a5,a4,ed8 <morse_send_string+0x180>
     eec:	0006a703          	lw	a4,0(a3)
     ef0:	fdf77713          	andi	a4,a4,-33
     ef4:	00e6a023          	sw	a4,0(a3)
     ef8:	00012623          	sw	zero,12(sp)
     efc:	00c12703          	lw	a4,12(sp)
     f00:	00e7cc63          	blt	a5,a4,f18 <morse_send_string+0x1c0>
     f04:	00c12703          	lw	a4,12(sp)
     f08:	00170713          	addi	a4,a4,1
     f0c:	00e12623          	sw	a4,12(sp)
     f10:	00c12703          	lw	a4,12(sp)
     f14:	fee7d8e3          	bge	a5,a4,f04 <morse_send_string+0x1ac>
     f18:	fff38393          	addi	t2,t2,-1
     f1c:	fa0392e3          	bnez	t2,ec0 <morse_send_string+0x168>
     f20:	ee5ff06f          	j	e04 <morse_send_string+0xac>
     f24:	16800393          	li	t2,360
     f28:	0006a703          	lw	a4,0(a3)
     f2c:	02076713          	ori	a4,a4,32
     f30:	00e6a023          	sw	a4,0(a3)
     f34:	00012823          	sw	zero,16(sp)
     f38:	01012703          	lw	a4,16(sp)
     f3c:	00e7cc63          	blt	a5,a4,f54 <morse_send_string+0x1fc>
     f40:	01012703          	lw	a4,16(sp)
     f44:	00170713          	addi	a4,a4,1
     f48:	00e12823          	sw	a4,16(sp)
     f4c:	01012703          	lw	a4,16(sp)
     f50:	fee7d8e3          	bge	a5,a4,f40 <morse_send_string+0x1e8>
     f54:	0006a703          	lw	a4,0(a3)
     f58:	fdf77713          	andi	a4,a4,-33
     f5c:	00e6a023          	sw	a4,0(a3)
     f60:	00012a23          	sw	zero,20(sp)
     f64:	01412703          	lw	a4,20(sp)
     f68:	00e7cc63          	blt	a5,a4,f80 <morse_send_string+0x228>
     f6c:	01412703          	lw	a4,20(sp)
     f70:	00170713          	addi	a4,a4,1
     f74:	00e12a23          	sw	a4,20(sp)
     f78:	01412703          	lw	a4,20(sp)
     f7c:	fee7d8e3          	bge	a5,a4,f6c <morse_send_string+0x214>
     f80:	fff38393          	addi	t2,t2,-1
     f84:	fa0392e3          	bnez	t2,f28 <morse_send_string+0x1d0>
     f88:	e7dff06f          	j	e04 <morse_send_string+0xac>
     f8c:	0006a703          	lw	a4,0(a3)
     f90:	fdf77713          	andi	a4,a4,-33
     f94:	00e6a023          	sw	a4,0(a3)
     f98:	00012023          	sw	zero,0(sp)
     f9c:	00012703          	lw	a4,0(sp)
     fa0:	ece844e3          	blt	a6,a4,e68 <morse_send_string+0x110>
     fa4:	00012703          	lw	a4,0(sp)
     fa8:	00170713          	addi	a4,a4,1
     fac:	00e12023          	sw	a4,0(sp)
     fb0:	00012703          	lw	a4,0(sp)
     fb4:	fee858e3          	bge	a6,a4,fa4 <morse_send_string+0x24c>
     fb8:	001e4403          	lbu	s0,1(t3)
     fbc:	001e0e13          	addi	t3,t3,1
     fc0:	de0418e3          	bnez	s0,db0 <morse_send_string+0x58>
     fc4:	eb1ff06f          	j	e74 <morse_send_string+0x11c>

00000fc8 <transfer_new_text>:
     fc8:	ff010113          	addi	sp,sp,-16
     fcc:	00012623          	sw	zero,12(sp)
     fd0:	00251613          	slli	a2,a0,0x2
     fd4:	00c12783          	lw	a5,12(sp)
     fd8:	00a60833          	add	a6,a2,a0
     fdc:	0007a737          	lui	a4,0x7a
     fe0:	01481813          	slli	a6,a6,0x14
     fe4:	001006b7          	lui	a3,0x100
     fe8:	11f70713          	addi	a4,a4,287 # 7a11f <__global_pointer+0x7847b>
     fec:	00d80833          	add	a6,a6,a3
     ff0:	00f74c63          	blt	a4,a5,1008 <transfer_new_text+0x40>
     ff4:	00c12783          	lw	a5,12(sp)
     ff8:	00178793          	addi	a5,a5,1
     ffc:	00f12623          	sw	a5,12(sp)
    1000:	00c12783          	lw	a5,12(sp)
    1004:	fef758e3          	bge	a4,a5,ff4 <transfer_new_text+0x2c>
    1008:	001007b7          	lui	a5,0x100
    100c:	0007c703          	lbu	a4,0(a5) # 100000 <__stack_size>
    1010:	00a60633          	add	a2,a2,a0
    1014:	00600537          	lui	a0,0x600
    1018:	01461613          	slli	a2,a2,0x14
    101c:	fff50513          	addi	a0,a0,-1 # 5fffff <_stack_end+0x4fe7ff>
    1020:	00071663          	bnez	a4,102c <transfer_new_text+0x64>
    1024:	0340006f          	j	1058 <transfer_new_text+0x90>
    1028:	04a78463          	beq	a5,a0,1070 <transfer_new_text+0xa8>
    102c:	0007c703          	lbu	a4,0(a5)
    1030:	00c786b3          	add	a3,a5,a2
    1034:	00078593          	mv	a1,a5
    1038:	00e68023          	sb	a4,0(a3) # 100000 <__stack_size>
    103c:	0017c703          	lbu	a4,1(a5)
    1040:	00178793          	addi	a5,a5,1
    1044:	fe0712e3          	bnez	a4,1028 <transfer_new_text+0x60>
    1048:	fff007b7          	lui	a5,0xfff00
    104c:	00178793          	addi	a5,a5,1 # fff00001 <_stack_end+0xffdfe801>
    1050:	00f585b3          	add	a1,a1,a5
    1054:	00b80833          	add	a6,a6,a1
    1058:	00080023          	sb	zero,0(a6)
    105c:	001007b7          	lui	a5,0x100
    1060:	fff00713          	li	a4,-1
    1064:	00e78023          	sb	a4,0(a5) # 100000 <__stack_size>
    1068:	01010113          	addi	sp,sp,16
    106c:	00008067          	ret
    1070:	005007b7          	lui	a5,0x500
    1074:	fff78793          	addi	a5,a5,-1 # 4fffff <_stack_end+0x3fe7ff>
    1078:	00f80833          	add	a6,a6,a5
    107c:	00080023          	sb	zero,0(a6)
    1080:	001007b7          	lui	a5,0x100
    1084:	fff00713          	li	a4,-1
    1088:	00e78023          	sb	a4,0(a5) # 100000 <__stack_size>
    108c:	01010113          	addi	sp,sp,16
    1090:	00008067          	ret

00001094 <transmit_text_file>:
    1094:	00251793          	slli	a5,a0,0x2
    1098:	00a787b3          	add	a5,a5,a0
    109c:	01479793          	slli	a5,a5,0x14
    10a0:	00100537          	lui	a0,0x100
    10a4:	00a78533          	add	a0,a5,a0
    10a8:	cb1ff06f          	j	d58 <morse_send_string>

000010ac <main>:
    10ac:	fb010113          	addi	sp,sp,-80
    10b0:	04112623          	sw	ra,76(sp)
    10b4:	04812423          	sw	s0,72(sp)
    10b8:	04912223          	sw	s1,68(sp)
    10bc:	05212023          	sw	s2,64(sp)
    10c0:	03312e23          	sw	s3,60(sp)
    10c4:	03612823          	sw	s6,48(sp)
    10c8:	03712623          	sw	s7,44(sp)
    10cc:	03812423          	sw	s8,40(sp)
    10d0:	03912223          	sw	s9,36(sp)
    10d4:	03a12023          	sw	s10,32(sp)
    10d8:	03412c23          	sw	s4,56(sp)
    10dc:	03512a23          	sw	s5,52(sp)
    10e0:	01b12e23          	sw	s11,28(sp)
    10e4:	d20ff0ef          	jal	604 <spi_init>
    10e8:	e60ff0ef          	jal	748 <reset_CC1101>
    10ec:	9b9ff0ef          	jal	aa4 <config_CC1101>
    10f0:	000017b7          	lui	a5,0x1
    10f4:	4a47a683          	lw	a3,1188(a5) # 14a4 <direction>
    10f8:	00100bb7          	lui	s7,0x100
    10fc:	fff00613          	li	a2,-1
    1100:	0006a703          	lw	a4,0(a3)
    1104:	040007b7          	lui	a5,0x4000
    1108:	000019b7          	lui	s3,0x1
    110c:	02076713          	ori	a4,a4,32
    1110:	00e6a023          	sw	a4,0(a3)
    1114:	00cb8023          	sb	a2,0(s7) # 100000 <__stack_size>
    1118:	04000693          	li	a3,64
    111c:	04d7a823          	sw	a3,80(a5) # 4000050 <_stack_end+0x3efe850>
    1120:	04000737          	lui	a4,0x4000
    1124:	07f00793          	li	a5,127
    1128:	06f72023          	sw	a5,96(a4) # 4000060 <_stack_end+0x3efe860>
    112c:	04000737          	lui	a4,0x4000
    1130:	06f72823          	sw	a5,112(a4) # 4000070 <_stack_end+0x3efe870>
    1134:	04000737          	lui	a4,0x4000
    1138:	08f72023          	sw	a5,128(a4) # 4000080 <_stack_end+0x3efe880>
    113c:	04000737          	lui	a4,0x4000
    1140:	08d72823          	sw	a3,144(a4) # 4000090 <_stack_end+0x3efe890>
    1144:	00001937          	lui	s2,0x1
    1148:	04000737          	lui	a4,0x4000
    114c:	04000437          	lui	s0,0x4000
    1150:	040004b7          	lui	s1,0x4000
    1154:	00002b37          	lui	s6,0x2
    1158:	0af72023          	sw	a5,160(a4) # 40000a0 <_stack_end+0x3efe8a0>
    115c:	4d898993          	addi	s3,s3,1240 # 14d8 <data+0x30>
    1160:	50090913          	addi	s2,s2,1280 # 1500 <data+0x58>
    1164:	01048493          	addi	s1,s1,16 # 4000010 <_stack_end+0x3efe810>
    1168:	0d040413          	addi	s0,s0,208 # 40000d0 <_stack_end+0x3efe8d0>
    116c:	70fb0b13          	addi	s6,s6,1807 # 270f <__global_pointer+0xa6b>
    1170:	00000c93          	li	s9,0
    1174:	00000c13          	li	s8,0
    1178:	00900d13          	li	s10,9
    117c:	0004a703          	lw	a4,0(s1)
    1180:	00042783          	lw	a5,0(s0)
    1184:	1ff77a13          	andi	s4,a4,511
    1188:	0017f793          	andi	a5,a5,1
    118c:	00078e63          	beqz	a5,11a8 <main+0xfc>
    1190:	000c0c63          	beqz	s8,11a8 <main+0xfc>
    1194:	000c8a63          	beqz	s9,11a8 <main+0xfc>
    1198:	20077713          	andi	a4,a4,512
    119c:	24071e63          	bnez	a4,13f8 <main+0x34c>
    11a0:	000c8513          	mv	a0,s9
    11a4:	835ff0ef          	jal	9d8 <transmit_current_file>
    11a8:	a01007b7          	lui	a5,0xa0100
    11ac:	0007c783          	lbu	a5,0(a5) # a0100000 <_stack_end+0x9fffe800>
    11b0:	0ff00713          	li	a4,255
    11b4:	0ae78463          	beq	a5,a4,125c <main+0x1b0>
    11b8:	00012423          	sw	zero,8(sp)
    11bc:	00812783          	lw	a5,8(sp)
    11c0:	001c0c13          	addi	s8,s8,1
    11c4:	0ffc7a93          	zext.b	s5,s8
    11c8:	00fb4c63          	blt	s6,a5,11e0 <main+0x134>
    11cc:	00812783          	lw	a5,8(sp)
    11d0:	00178793          	addi	a5,a5,1
    11d4:	00f12423          	sw	a5,8(sp)
    11d8:	00812783          	lw	a5,8(sp)
    11dc:	fefb58e3          	bge	s6,a5,11cc <main+0x120>
    11e0:	001007b7          	lui	a5,0x100
    11e4:	0287ad83          	lw	s11,40(a5) # 100028 <__stack_size+0x28>
    11e8:	000d8513          	mv	a0,s11
    11ec:	fddfe0ef          	jal	1c8 <print_dec>
    11f0:	00012623          	sw	zero,12(sp)
    11f4:	002d9713          	slli	a4,s11,0x2
    11f8:	00c12783          	lw	a5,12(sp)
    11fc:	01b70733          	add	a4,a4,s11
    1200:	00171713          	slli	a4,a4,0x1
    1204:	00e7dc63          	bge	a5,a4,121c <main+0x170>
    1208:	00c12783          	lw	a5,12(sp)
    120c:	00178793          	addi	a5,a5,1
    1210:	00f12623          	sw	a5,12(sp)
    1214:	00c12783          	lw	a5,12(sp)
    1218:	fee7c8e3          	blt	a5,a4,1208 <main+0x15c>
    121c:	fd500793          	li	a5,-43
    1220:	02fdca63          	blt	s11,a5,1254 <main+0x1a8>
    1224:	002a9593          	slli	a1,s5,0x2
    1228:	015585b3          	add	a1,a1,s5
    122c:	02cd8513          	addi	a0,s11,44
    1230:	01459593          	slli	a1,a1,0x14
    1234:	00000793          	li	a5,0
    1238:	00fb8733          	add	a4,s7,a5
    123c:	00074683          	lbu	a3,0(a4)
    1240:	00f58733          	add	a4,a1,a5
    1244:	00eb8733          	add	a4,s7,a4
    1248:	00d70023          	sb	a3,0(a4)
    124c:	00178793          	addi	a5,a5,1
    1250:	fea794e3          	bne	a5,a0,1238 <main+0x18c>
    1254:	fff00793          	li	a5,-1
    1258:	00fb8023          	sb	a5,0(s7)
    125c:	014c4463          	blt	s8,s4,1264 <main+0x1b8>
    1260:	000a0c93          	mv	s9,s4
    1264:	019d6e63          	bltu	s10,s9,1280 <main+0x1d4>
    1268:	002c9793          	slli	a5,s9,0x2
    126c:	00f987b3          	add	a5,s3,a5
    1270:	0007a783          	lw	a5,0(a5)
    1274:	00078067          	jr	a5
    1278:	040007b7          	lui	a5,0x4000
    127c:	0407a823          	sw	zero,80(a5) # 4000050 <_stack_end+0x3efe850>
    1280:	0b8d6663          	bltu	s10,s8,132c <main+0x280>
    1284:	002c1793          	slli	a5,s8,0x2
    1288:	00f907b3          	add	a5,s2,a5
    128c:	0007a783          	lw	a5,0(a5)
    1290:	00078067          	jr	a5
    1294:	040007b7          	lui	a5,0x4000
    1298:	07800713          	li	a4,120
    129c:	04e7a823          	sw	a4,80(a5) # 4000050 <_stack_end+0x3efe850>
    12a0:	fe1ff06f          	j	1280 <main+0x1d4>
    12a4:	040007b7          	lui	a5,0x4000
    12a8:	00200713          	li	a4,2
    12ac:	04e7a823          	sw	a4,80(a5) # 4000050 <_stack_end+0x3efe850>
    12b0:	fd1ff06f          	j	1280 <main+0x1d4>
    12b4:	040007b7          	lui	a5,0x4000
    12b8:	01200713          	li	a4,18
    12bc:	04e7a823          	sw	a4,80(a5) # 4000050 <_stack_end+0x3efe850>
    12c0:	fc1ff06f          	j	1280 <main+0x1d4>
    12c4:	040007b7          	lui	a5,0x4000
    12c8:	01900713          	li	a4,25
    12cc:	04e7a823          	sw	a4,80(a5) # 4000050 <_stack_end+0x3efe850>
    12d0:	fb1ff06f          	j	1280 <main+0x1d4>
    12d4:	040007b7          	lui	a5,0x4000
    12d8:	03000713          	li	a4,48
    12dc:	04e7a823          	sw	a4,80(a5) # 4000050 <_stack_end+0x3efe850>
    12e0:	fa1ff06f          	j	1280 <main+0x1d4>
    12e4:	040007b7          	lui	a5,0x4000
    12e8:	02400713          	li	a4,36
    12ec:	04e7a823          	sw	a4,80(a5) # 4000050 <_stack_end+0x3efe850>
    12f0:	f91ff06f          	j	1280 <main+0x1d4>
    12f4:	040007b7          	lui	a5,0x4000
    12f8:	07900713          	li	a4,121
    12fc:	04e7a823          	sw	a4,80(a5) # 4000050 <_stack_end+0x3efe850>
    1300:	f81ff06f          	j	1280 <main+0x1d4>
    1304:	040007b7          	lui	a5,0x4000
    1308:	04000713          	li	a4,64
    130c:	04e7a823          	sw	a4,80(a5) # 4000050 <_stack_end+0x3efe850>
    1310:	f71ff06f          	j	1280 <main+0x1d4>
    1314:	040007b7          	lui	a5,0x4000
    1318:	01800713          	li	a4,24
    131c:	04e7a823          	sw	a4,80(a5) # 4000050 <_stack_end+0x3efe850>
    1320:	f61ff06f          	j	1280 <main+0x1d4>
    1324:	040007b7          	lui	a5,0x4000
    1328:	0807a823          	sw	zero,144(a5) # 4000090 <_stack_end+0x3efe890>
    132c:	07f00793          	li	a5,127
    1330:	040006b7          	lui	a3,0x4000
    1334:	06f6a023          	sw	a5,96(a3) # 4000060 <_stack_end+0x3efe860>
    1338:	06f6a823          	sw	a5,112(a3)
    133c:	08f6a023          	sw	a5,128(a3)
    1340:	0af6a023          	sw	a5,160(a3)
    1344:	00012223          	sw	zero,4(sp)
    1348:	00412783          	lw	a5,4(sp)
    134c:	e2fb48e3          	blt	s6,a5,117c <main+0xd0>
    1350:	00412783          	lw	a5,4(sp)
    1354:	00178793          	addi	a5,a5,1
    1358:	00f12223          	sw	a5,4(sp)
    135c:	00412783          	lw	a5,4(sp)
    1360:	fefb58e3          	bge	s6,a5,1350 <main+0x2a4>
    1364:	e19ff06f          	j	117c <main+0xd0>
    1368:	040007b7          	lui	a5,0x4000
    136c:	00200713          	li	a4,2
    1370:	08e7a823          	sw	a4,144(a5) # 4000090 <_stack_end+0x3efe890>
    1374:	fb9ff06f          	j	132c <main+0x280>
    1378:	040007b7          	lui	a5,0x4000
    137c:	01200713          	li	a4,18
    1380:	08e7a823          	sw	a4,144(a5) # 4000090 <_stack_end+0x3efe890>
    1384:	fa9ff06f          	j	132c <main+0x280>
    1388:	040007b7          	lui	a5,0x4000
    138c:	07800713          	li	a4,120
    1390:	08e7a823          	sw	a4,144(a5) # 4000090 <_stack_end+0x3efe890>
    1394:	f99ff06f          	j	132c <main+0x280>
    1398:	040007b7          	lui	a5,0x4000
    139c:	01900713          	li	a4,25
    13a0:	08e7a823          	sw	a4,144(a5) # 4000090 <_stack_end+0x3efe890>
    13a4:	f89ff06f          	j	132c <main+0x280>
    13a8:	040007b7          	lui	a5,0x4000
    13ac:	03000713          	li	a4,48
    13b0:	08e7a823          	sw	a4,144(a5) # 4000090 <_stack_end+0x3efe890>
    13b4:	f79ff06f          	j	132c <main+0x280>
    13b8:	040007b7          	lui	a5,0x4000
    13bc:	04000713          	li	a4,64
    13c0:	08e7a823          	sw	a4,144(a5) # 4000090 <_stack_end+0x3efe890>
    13c4:	f69ff06f          	j	132c <main+0x280>
    13c8:	040007b7          	lui	a5,0x4000
    13cc:	01800713          	li	a4,24
    13d0:	08e7a823          	sw	a4,144(a5) # 4000090 <_stack_end+0x3efe890>
    13d4:	f59ff06f          	j	132c <main+0x280>
    13d8:	040007b7          	lui	a5,0x4000
    13dc:	02400713          	li	a4,36
    13e0:	08e7a823          	sw	a4,144(a5) # 4000090 <_stack_end+0x3efe890>
    13e4:	f49ff06f          	j	132c <main+0x280>
    13e8:	040007b7          	lui	a5,0x4000
    13ec:	07900713          	li	a4,121
    13f0:	08e7a823          	sw	a4,144(a5) # 4000090 <_stack_end+0x3efe890>
    13f4:	f39ff06f          	j	132c <main+0x280>
    13f8:	002c9513          	slli	a0,s9,0x2
    13fc:	01950533          	add	a0,a0,s9
    1400:	01451513          	slli	a0,a0,0x14
    1404:	00ab8533          	add	a0,s7,a0
    1408:	951ff0ef          	jal	d58 <morse_send_string>
    140c:	d9dff06f          	j	11a8 <main+0xfc>
